
Potencia.elf:     file format elf32-avr

Sections:
Idx Name          Size      VMA       LMA       File off  Algn
  0 .data         00000032  00800100  0000083c  000008d0  2**0
                  CONTENTS, ALLOC, LOAD, DATA
  1 .text         0000083c  00000000  00000000  00000094  2**1
                  CONTENTS, ALLOC, LOAD, READONLY, CODE
  2 .bss          00000024  00800132  00800132  00000902  2**0
                  ALLOC
  3 .comment      00000030  00000000  00000000  00000902  2**0
                  CONTENTS, READONLY
  4 .debug_aranges 00000058  00000000  00000000  00000932  2**0
                  CONTENTS, READONLY, DEBUGGING
  5 .debug_info   000007e8  00000000  00000000  0000098a  2**0
                  CONTENTS, READONLY, DEBUGGING
  6 .debug_abbrev 000001fe  00000000  00000000  00001172  2**0
                  CONTENTS, READONLY, DEBUGGING
  7 .debug_line   00000296  00000000  00000000  00001370  2**0
                  CONTENTS, READONLY, DEBUGGING
  8 .debug_frame  00000178  00000000  00000000  00001608  2**2
                  CONTENTS, READONLY, DEBUGGING
  9 .debug_str    0000026e  00000000  00000000  00001780  2**0
                  CONTENTS, READONLY, DEBUGGING
 10 .debug_loc    0000040e  00000000  00000000  000019ee  2**0
                  CONTENTS, READONLY, DEBUGGING
 11 .debug_ranges 00000048  00000000  00000000  00001dfc  2**0
                  CONTENTS, READONLY, DEBUGGING

Disassembly of section .text:

00000000 <__vectors>:
   0:	0c 94 34 00 	jmp	0x68	; 0x68 <__ctors_end>
   4:	0c 94 da 01 	jmp	0x3b4	; 0x3b4 <__vector_1>
   8:	0c 94 c3 01 	jmp	0x386	; 0x386 <__vector_2>
   c:	0c 94 51 00 	jmp	0xa2	; 0xa2 <__bad_interrupt>
  10:	0c 94 51 00 	jmp	0xa2	; 0xa2 <__bad_interrupt>
  14:	0c 94 51 00 	jmp	0xa2	; 0xa2 <__bad_interrupt>
  18:	0c 94 51 00 	jmp	0xa2	; 0xa2 <__bad_interrupt>
  1c:	0c 94 51 00 	jmp	0xa2	; 0xa2 <__bad_interrupt>
  20:	0c 94 51 00 	jmp	0xa2	; 0xa2 <__bad_interrupt>
  24:	0c 94 51 00 	jmp	0xa2	; 0xa2 <__bad_interrupt>
  28:	0c 94 51 00 	jmp	0xa2	; 0xa2 <__bad_interrupt>
  2c:	0c 94 51 00 	jmp	0xa2	; 0xa2 <__bad_interrupt>
  30:	0c 94 51 00 	jmp	0xa2	; 0xa2 <__bad_interrupt>
  34:	0c 94 f1 01 	jmp	0x3e2	; 0x3e2 <__vector_13>
  38:	0c 94 51 00 	jmp	0xa2	; 0xa2 <__bad_interrupt>
  3c:	0c 94 51 00 	jmp	0xa2	; 0xa2 <__bad_interrupt>
  40:	0c 94 51 00 	jmp	0xa2	; 0xa2 <__bad_interrupt>
  44:	0c 94 51 00 	jmp	0xa2	; 0xa2 <__bad_interrupt>
  48:	0c 94 75 01 	jmp	0x2ea	; 0x2ea <__vector_18>
  4c:	0c 94 51 00 	jmp	0xa2	; 0xa2 <__bad_interrupt>
  50:	0c 94 51 00 	jmp	0xa2	; 0xa2 <__bad_interrupt>
  54:	0c 94 51 00 	jmp	0xa2	; 0xa2 <__bad_interrupt>
  58:	0c 94 51 00 	jmp	0xa2	; 0xa2 <__bad_interrupt>
  5c:	0c 94 51 00 	jmp	0xa2	; 0xa2 <__bad_interrupt>
  60:	0c 94 51 00 	jmp	0xa2	; 0xa2 <__bad_interrupt>
  64:	0c 94 51 00 	jmp	0xa2	; 0xa2 <__bad_interrupt>

00000068 <__ctors_end>:
  68:	11 24       	eor	r1, r1
  6a:	1f be       	out	0x3f, r1	; 63
  6c:	cf ef       	ldi	r28, 0xFF	; 255
  6e:	d8 e0       	ldi	r29, 0x08	; 8
  70:	de bf       	out	0x3e, r29	; 62
  72:	cd bf       	out	0x3d, r28	; 61

00000074 <__do_copy_data>:
  74:	11 e0       	ldi	r17, 0x01	; 1
  76:	a0 e0       	ldi	r26, 0x00	; 0
  78:	b1 e0       	ldi	r27, 0x01	; 1
  7a:	ec e3       	ldi	r30, 0x3C	; 60
  7c:	f8 e0       	ldi	r31, 0x08	; 8
  7e:	02 c0       	rjmp	.+4      	; 0x84 <__do_copy_data+0x10>
  80:	05 90       	lpm	r0, Z+
  82:	0d 92       	st	X+, r0
  84:	a2 33       	cpi	r26, 0x32	; 50
  86:	b1 07       	cpc	r27, r17
  88:	d9 f7       	brne	.-10     	; 0x80 <__do_copy_data+0xc>

0000008a <__do_clear_bss>:
  8a:	21 e0       	ldi	r18, 0x01	; 1
  8c:	a2 e3       	ldi	r26, 0x32	; 50
  8e:	b1 e0       	ldi	r27, 0x01	; 1
  90:	01 c0       	rjmp	.+2      	; 0x94 <.do_clear_bss_start>

00000092 <.do_clear_bss_loop>:
  92:	1d 92       	st	X+, r1

00000094 <.do_clear_bss_start>:
  94:	a6 35       	cpi	r26, 0x56	; 86
  96:	b2 07       	cpc	r27, r18
  98:	e1 f7       	brne	.-8      	; 0x92 <.do_clear_bss_loop>
  9a:	0e 94 37 03 	call	0x66e	; 0x66e <main>
  9e:	0c 94 1c 04 	jmp	0x838	; 0x838 <_exit>

000000a2 <__bad_interrupt>:
  a2:	0c 94 00 00 	jmp	0	; 0x0 <__vectors>

000000a6 <CONTROL>:
}

//######################################################### FUNCION DE CONTROL GENERAL #######################################################################################

void CONTROL(char DATO[])
{
  a6:	0f 93       	push	r16
  a8:	1f 93       	push	r17
  aa:	cf 93       	push	r28
  ac:	df 93       	push	r29
  ae:	cd b7       	in	r28, 0x3d	; 61
  b0:	de b7       	in	r29, 0x3e	; 62
  b2:	69 97       	sbiw	r28, 0x19	; 25
  b4:	0f b6       	in	r0, 0x3f	; 63
  b6:	f8 94       	cli
  b8:	de bf       	out	0x3e, r29	; 62
  ba:	0f be       	out	0x3f, r0	; 63
  bc:	cd bf       	out	0x3d, r28	; 61
  be:	8c 01       	movw	r16, r24
	char mremoto[]="Modo Remoto\n";
  c0:	8d e0       	ldi	r24, 0x0D	; 13
  c2:	e8 e0       	ldi	r30, 0x08	; 8
  c4:	f1 e0       	ldi	r31, 0x01	; 1
  c6:	de 01       	movw	r26, r28
  c8:	11 96       	adiw	r26, 0x01	; 1
  ca:	01 90       	ld	r0, Z+
  cc:	0d 92       	st	X+, r0
  ce:	8a 95       	dec	r24
  d0:	e1 f7       	brne	.-8      	; 0xca <CONTROL+0x24>
	char mlocal[]="Modo Local\n";
  d2:	8c e0       	ldi	r24, 0x0C	; 12
  d4:	e5 e1       	ldi	r30, 0x15	; 21
  d6:	f1 e0       	ldi	r31, 0x01	; 1
  d8:	de 01       	movw	r26, r28
  da:	1e 96       	adiw	r26, 0x0e	; 14
  dc:	01 90       	ld	r0, Z+
  de:	0d 92       	st	X+, r0
  e0:	8a 95       	dec	r24
  e2:	e1 f7       	brne	.-8      	; 0xdc <CONTROL+0x36>
	int cen = 0,dec = 0,uni = 0,resultado = 0;
	
	if (strcmp(DATO,remoto)==0||strcmp(DATO,local)==0)
  e4:	64 e0       	ldi	r22, 0x04	; 4
  e6:	71 e0       	ldi	r23, 0x01	; 1
  e8:	c8 01       	movw	r24, r16
  ea:	0e 94 0c 04 	call	0x818	; 0x818 <strcmp>
  ee:	89 2b       	or	r24, r25
  f0:	39 f0       	breq	.+14     	; 0x100 <CONTROL+0x5a>
  f2:	66 e0       	ldi	r22, 0x06	; 6
  f4:	71 e0       	ldi	r23, 0x01	; 1
  f6:	c8 01       	movw	r24, r16
  f8:	0e 94 0c 04 	call	0x818	; 0x818 <strcmp>
  fc:	89 2b       	or	r24, r25
  fe:	29 f4       	brne	.+10     	; 0x10a <CONTROL+0x64>
	{
		strcpy(modo,DATO);
 100:	b8 01       	movw	r22, r16
 102:	81 e5       	ldi	r24, 0x51	; 81
 104:	91 e0       	ldi	r25, 0x01	; 1
 106:	0e 94 15 04 	call	0x82a	; 0x82a <strcpy>
	}
	if ((strcmp(DATO,on_off)==0)&&(strcmp(modo,remoto)==0))
 10a:	62 e0       	ldi	r22, 0x02	; 2
 10c:	71 e0       	ldi	r23, 0x01	; 1
 10e:	c8 01       	movw	r24, r16
 110:	0e 94 0c 04 	call	0x818	; 0x818 <strcmp>
 114:	89 2b       	or	r24, r25
 116:	71 f4       	brne	.+28     	; 0x134 <CONTROL+0x8e>
 118:	64 e0       	ldi	r22, 0x04	; 4
 11a:	71 e0       	ldi	r23, 0x01	; 1
 11c:	81 e5       	ldi	r24, 0x51	; 81
 11e:	91 e0       	ldi	r25, 0x01	; 1
 120:	0e 94 0c 04 	call	0x818	; 0x818 <strcmp>
 124:	89 2b       	or	r24, r25
 126:	31 f4       	brne	.+12     	; 0x134 <CONTROL+0x8e>
	{
		strcpy(estado,DATO);
 128:	b8 01       	movw	r22, r16
 12a:	89 e3       	ldi	r24, 0x39	; 57
 12c:	91 e0       	ldi	r25, 0x01	; 1
 12e:	0e 94 15 04 	call	0x82a	; 0x82a <strcpy>
 132:	05 c0       	rjmp	.+10     	; 0x13e <CONTROL+0x98>
	}
	else
	{
		strcpy(valor,DATO);
 134:	b8 01       	movw	r22, r16
 136:	8e e3       	ldi	r24, 0x3E	; 62
 138:	91 e0       	ldi	r25, 0x01	; 1
 13a:	0e 94 15 04 	call	0x82a	; 0x82a <strcpy>
	}
	if (strcmp(modo,remoto)==0)
 13e:	64 e0       	ldi	r22, 0x04	; 4
 140:	71 e0       	ldi	r23, 0x01	; 1
 142:	81 e5       	ldi	r24, 0x51	; 81
 144:	91 e0       	ldi	r25, 0x01	; 1
 146:	0e 94 0c 04 	call	0x818	; 0x818 <strcmp>
 14a:	89 2b       	or	r24, r25
 14c:	c1 f5       	brne	.+112    	; 0x1be <CONTROL+0x118>
	{
		if (modoant!=1)
 14e:	80 91 37 01 	lds	r24, 0x0137
 152:	90 91 38 01 	lds	r25, 0x0138
 156:	01 97       	sbiw	r24, 0x01	; 1
 158:	51 f1       	breq	.+84     	; 0x1ae <CONTROL+0x108>
		{
			for (i=0;i<=strlen(mremoto);i++)
 15a:	10 92 47 01 	sts	0x0147, r1
 15e:	10 92 46 01 	sts	0x0146, r1
 162:	a0 e0       	ldi	r26, 0x00	; 0
 164:	b0 e0       	ldi	r27, 0x00	; 0
			{
				while ( !(UCSR0A &(1<<UDRE0)));
 166:	e0 ec       	ldi	r30, 0xC0	; 192
 168:	f0 e0       	ldi	r31, 0x00	; 0
				UDR0=mremoto[i];
 16a:	9e 01       	movw	r18, r28
 16c:	2f 5f       	subi	r18, 0xFF	; 255
 16e:	3f 4f       	sbci	r19, 0xFF	; 255
 170:	46 ec       	ldi	r20, 0xC6	; 198
 172:	50 e0       	ldi	r21, 0x00	; 0
 174:	01 c0       	rjmp	.+2      	; 0x178 <CONTROL+0xd2>
	}
	if (strcmp(modo,remoto)==0)
	{
		if (modoant!=1)
		{
			for (i=0;i<=strlen(mremoto);i++)
 176:	dc 01       	movw	r26, r24
			{
				while ( !(UCSR0A &(1<<UDRE0)));
 178:	80 81       	ld	r24, Z
 17a:	85 ff       	sbrs	r24, 5
 17c:	fd cf       	rjmp	.-6      	; 0x178 <CONTROL+0xd2>
				UDR0=mremoto[i];
 17e:	a2 0f       	add	r26, r18
 180:	b3 1f       	adc	r27, r19
 182:	8c 91       	ld	r24, X
 184:	da 01       	movw	r26, r20
 186:	8c 93       	st	X, r24
	}
	if (strcmp(modo,remoto)==0)
	{
		if (modoant!=1)
		{
			for (i=0;i<=strlen(mremoto);i++)
 188:	80 91 46 01 	lds	r24, 0x0146
 18c:	90 91 47 01 	lds	r25, 0x0147
 190:	01 96       	adiw	r24, 0x01	; 1
 192:	90 93 47 01 	sts	0x0147, r25
 196:	80 93 46 01 	sts	0x0146, r24
 19a:	d9 01       	movw	r26, r18
 19c:	0d 90       	ld	r0, X+
 19e:	00 20       	and	r0, r0
 1a0:	e9 f7       	brne	.-6      	; 0x19c <CONTROL+0xf6>
 1a2:	11 97       	sbiw	r26, 0x01	; 1
 1a4:	a2 1b       	sub	r26, r18
 1a6:	b3 0b       	sbc	r27, r19
 1a8:	a8 17       	cp	r26, r24
 1aa:	b9 07       	cpc	r27, r25
 1ac:	20 f7       	brcc	.-56     	; 0x176 <CONTROL+0xd0>
			{
				while ( !(UCSR0A &(1<<UDRE0)));
				UDR0=mremoto[i];
			}
		}
		ADCSRA = (0<<ADEN)|(0<<ADSC);						//OFF CAD
 1ae:	10 92 7a 00 	sts	0x007A, r1
		modoant=1;
 1b2:	81 e0       	ldi	r24, 0x01	; 1
 1b4:	90 e0       	ldi	r25, 0x00	; 0
 1b6:	90 93 38 01 	sts	0x0138, r25
 1ba:	80 93 37 01 	sts	0x0137, r24
	}
	if (strcmp(modo,local)==0)								//Pregunta si es modo LOCAL
 1be:	66 e0       	ldi	r22, 0x06	; 6
 1c0:	71 e0       	ldi	r23, 0x01	; 1
 1c2:	81 e5       	ldi	r24, 0x51	; 81
 1c4:	91 e0       	ldi	r25, 0x01	; 1
 1c6:	0e 94 0c 04 	call	0x818	; 0x818 <strcmp>
 1ca:	89 2b       	or	r24, r25
 1cc:	c9 f5       	brne	.+114    	; 0x240 <CONTROL+0x19a>
	{
		if (modoant!=2)
 1ce:	80 91 37 01 	lds	r24, 0x0137
 1d2:	90 91 38 01 	lds	r25, 0x0138
 1d6:	02 97       	sbiw	r24, 0x02	; 2
 1d8:	51 f1       	breq	.+84     	; 0x22e <CONTROL+0x188>
		{
			for (i=0;i<=strlen(mlocal);i++)
 1da:	10 92 47 01 	sts	0x0147, r1
 1de:	10 92 46 01 	sts	0x0146, r1
 1e2:	a0 e0       	ldi	r26, 0x00	; 0
 1e4:	b0 e0       	ldi	r27, 0x00	; 0
			{
				while ( !(UCSR0A &(1<<UDRE0)));
 1e6:	e0 ec       	ldi	r30, 0xC0	; 192
 1e8:	f0 e0       	ldi	r31, 0x00	; 0
				UDR0=mlocal[i];
 1ea:	9e 01       	movw	r18, r28
 1ec:	22 5f       	subi	r18, 0xF2	; 242
 1ee:	3f 4f       	sbci	r19, 0xFF	; 255
 1f0:	46 ec       	ldi	r20, 0xC6	; 198
 1f2:	50 e0       	ldi	r21, 0x00	; 0
 1f4:	01 c0       	rjmp	.+2      	; 0x1f8 <CONTROL+0x152>
	}
	if (strcmp(modo,local)==0)								//Pregunta si es modo LOCAL
	{
		if (modoant!=2)
		{
			for (i=0;i<=strlen(mlocal);i++)
 1f6:	dc 01       	movw	r26, r24
			{
				while ( !(UCSR0A &(1<<UDRE0)));
 1f8:	80 81       	ld	r24, Z
 1fa:	85 ff       	sbrs	r24, 5
 1fc:	fd cf       	rjmp	.-6      	; 0x1f8 <CONTROL+0x152>
				UDR0=mlocal[i];
 1fe:	a2 0f       	add	r26, r18
 200:	b3 1f       	adc	r27, r19
 202:	8c 91       	ld	r24, X
 204:	da 01       	movw	r26, r20
 206:	8c 93       	st	X, r24
	}
	if (strcmp(modo,local)==0)								//Pregunta si es modo LOCAL
	{
		if (modoant!=2)
		{
			for (i=0;i<=strlen(mlocal);i++)
 208:	80 91 46 01 	lds	r24, 0x0146
 20c:	90 91 47 01 	lds	r25, 0x0147
 210:	01 96       	adiw	r24, 0x01	; 1
 212:	90 93 47 01 	sts	0x0147, r25
 216:	80 93 46 01 	sts	0x0146, r24
 21a:	d9 01       	movw	r26, r18
 21c:	0d 90       	ld	r0, X+
 21e:	00 20       	and	r0, r0
 220:	e9 f7       	brne	.-6      	; 0x21c <CONTROL+0x176>
 222:	11 97       	sbiw	r26, 0x01	; 1
 224:	a2 1b       	sub	r26, r18
 226:	b3 0b       	sbc	r27, r19
 228:	a8 17       	cp	r26, r24
 22a:	b9 07       	cpc	r27, r25
 22c:	20 f7       	brcc	.-56     	; 0x1f6 <CONTROL+0x150>
			{
				while ( !(UCSR0A &(1<<UDRE0)));
				UDR0=mlocal[i];
			}
		}													//Si es local:
		ADCSRA = (1<<ADEN)|(0<<ADSC)|(1<<ADPS1)|(1<<ADPS0);	//ON CAD
 22e:	83 e8       	ldi	r24, 0x83	; 131
 230:	80 93 7a 00 	sts	0x007A, r24
		modoant=2;
 234:	82 e0       	ldi	r24, 0x02	; 2
 236:	90 e0       	ldi	r25, 0x00	; 0
 238:	90 93 38 01 	sts	0x0138, r25
 23c:	80 93 37 01 	sts	0x0137, r24
	}
	if (strcmp(modo,remoto)==0)
 240:	64 e0       	ldi	r22, 0x04	; 4
 242:	71 e0       	ldi	r23, 0x01	; 1
 244:	81 e5       	ldi	r24, 0x51	; 81
 246:	91 e0       	ldi	r25, 0x01	; 1
 248:	0e 94 0c 04 	call	0x818	; 0x818 <strcmp>
 24c:	89 2b       	or	r24, r25
 24e:	99 f5       	brne	.+102    	; 0x2b6 <CONTROL+0x210>
	{														//Si es REMOTO:
		cen = (valor[0] - 48) * 100;
 250:	20 91 3e 01 	lds	r18, 0x013E
 254:	30 e0       	ldi	r19, 0x00	; 0
 256:	20 53       	subi	r18, 0x30	; 48
 258:	31 09       	sbc	r19, r1
 25a:	44 e6       	ldi	r20, 0x64	; 100
 25c:	42 9f       	mul	r20, r18
 25e:	c0 01       	movw	r24, r0
 260:	43 9f       	mul	r20, r19
 262:	90 0d       	add	r25, r0
 264:	11 24       	eor	r1, r1
		dec = (valor[1] - 48) * 10;
 266:	20 91 3f 01 	lds	r18, 0x013F
 26a:	30 e0       	ldi	r19, 0x00	; 0
 26c:	20 53       	subi	r18, 0x30	; 48
 26e:	31 09       	sbc	r19, r1
 270:	a9 01       	movw	r20, r18
 272:	44 0f       	add	r20, r20
 274:	55 1f       	adc	r21, r21
 276:	22 0f       	add	r18, r18
 278:	33 1f       	adc	r19, r19
 27a:	22 0f       	add	r18, r18
 27c:	33 1f       	adc	r19, r19
 27e:	22 0f       	add	r18, r18
 280:	33 1f       	adc	r19, r19
 282:	24 0f       	add	r18, r20
 284:	35 1f       	adc	r19, r21
		uni = valor[2] - 48;
		resultado = cen + dec + uni;						//ON PWM
 286:	82 0f       	add	r24, r18
 288:	93 1f       	adc	r25, r19
	}
	if (strcmp(modo,remoto)==0)
	{														//Si es REMOTO:
		cen = (valor[0] - 48) * 100;
		dec = (valor[1] - 48) * 10;
		uni = valor[2] - 48;
 28a:	40 91 40 01 	lds	r20, 0x0140
 28e:	50 e0       	ldi	r21, 0x00	; 0
 290:	40 53       	subi	r20, 0x30	; 48
 292:	51 09       	sbc	r21, r1
		resultado = cen + dec + uni;						//ON PWM
 294:	84 0f       	add	r24, r20
 296:	95 1f       	adc	r25, r21
		if(resultado<=100)
 298:	85 36       	cpi	r24, 0x65	; 101
 29a:	91 05       	cpc	r25, r1
 29c:	64 f4       	brge	.+24     	; 0x2b6 <CONTROL+0x210>
		{
			ValorPote = resultado;
 29e:	aa 27       	eor	r26, r26
 2a0:	97 fd       	sbrc	r25, 7
 2a2:	a0 95       	com	r26
 2a4:	ba 2f       	mov	r27, r26
 2a6:	80 93 48 01 	sts	0x0148, r24
 2aa:	90 93 49 01 	sts	0x0149, r25
 2ae:	a0 93 4a 01 	sts	0x014A, r26
 2b2:	b0 93 4b 01 	sts	0x014B, r27
		}
	}
}
 2b6:	69 96       	adiw	r28, 0x19	; 25
 2b8:	0f b6       	in	r0, 0x3f	; 63
 2ba:	f8 94       	cli
 2bc:	de bf       	out	0x3e, r29	; 62
 2be:	0f be       	out	0x3f, r0	; 63
 2c0:	cd bf       	out	0x3d, r28	; 61
 2c2:	df 91       	pop	r29
 2c4:	cf 91       	pop	r28
 2c6:	1f 91       	pop	r17
 2c8:	0f 91       	pop	r16
 2ca:	08 95       	ret

000002cc <LecturaPin8>:

//######################################################### FUNCION PARA LEER EL PIN 8 EN MODO LOCAL ##################################################################################################################

uint8_t LecturaPin8(void)
{
	if((PINB & (1<<PINB0)) == 0)							// Si el botón esta presionado.
 2cc:	18 99       	sbic	0x03, 0	; 3
 2ce:	09 c0       	rjmp	.+18     	; 0x2e2 <LecturaPin8+0x16>
	#else
		//round up by default
		__ticks_dc = (uint32_t)(ceil(fabs(__tmp)));
	#endif

	__builtin_avr_delay_cycles(__ticks_dc);
 2d0:	2f e7       	ldi	r18, 0x7F	; 127
 2d2:	88 e3       	ldi	r24, 0x38	; 56
 2d4:	91 e0       	ldi	r25, 0x01	; 1
 2d6:	21 50       	subi	r18, 0x01	; 1
 2d8:	80 40       	sbci	r24, 0x00	; 0
 2da:	90 40       	sbci	r25, 0x00	; 0
 2dc:	e1 f7       	brne	.-8      	; 0x2d6 <LecturaPin8+0xa>
 2de:	00 c0       	rjmp	.+0      	; 0x2e0 <LecturaPin8+0x14>
 2e0:	00 00       	nop
	{ 
		_delay_ms(25);										// Retardo de entrada para el valor leído.
	}
	if((PINB & (1<<PINB0)) == 0)							// Verifica que la la lectura sea correcta.
 2e2:	83 b1       	in	r24, 0x03	; 3
 2e4:	80 95       	com	r24
	}
	else 
	{	
		return 0;											// Si el valor cambio la lectura es incorrecta.
	}		
}
 2e6:	81 70       	andi	r24, 0x01	; 1
 2e8:	08 95       	ret

000002ea <__vector_18>:

//######################################################### FUNCION DE RECEPCION DE DATOS ##################################################################################################################

ISR(USART_RX_vect){
 2ea:	1f 92       	push	r1
 2ec:	0f 92       	push	r0
 2ee:	0f b6       	in	r0, 0x3f	; 63
 2f0:	0f 92       	push	r0
 2f2:	11 24       	eor	r1, r1
 2f4:	2f 93       	push	r18
 2f6:	3f 93       	push	r19
 2f8:	4f 93       	push	r20
 2fa:	5f 93       	push	r21
 2fc:	6f 93       	push	r22
 2fe:	7f 93       	push	r23
 300:	8f 93       	push	r24
 302:	9f 93       	push	r25
 304:	af 93       	push	r26
 306:	bf 93       	push	r27
 308:	ef 93       	push	r30
 30a:	ff 93       	push	r31
	char datoRX=UDR0;
 30c:	20 91 c6 00 	lds	r18, 0x00C6
	
	if(datoRX=='$')											// si se cumple
 310:	24 32       	cpi	r18, 0x24	; 36
 312:	41 f4       	brne	.+16     	; 0x324 <__vector_18+0x3a>
	{
		bTX=1;
 314:	81 e0       	ldi	r24, 0x01	; 1
 316:	80 93 32 01 	sts	0x0132, r24
		indice=0;
 31a:	10 92 34 01 	sts	0x0134, r1
 31e:	10 92 33 01 	sts	0x0133, r1
 322:	1c c0       	rjmp	.+56     	; 0x35c <__vector_18+0x72>
	}
	else
	{
		if((datoRX>='0') &&  (datoRX<='9'))
 324:	80 ed       	ldi	r24, 0xD0	; 208
 326:	82 0f       	add	r24, r18
 328:	8a 30       	cpi	r24, 0x0A	; 10
 32a:	70 f4       	brcc	.+28     	; 0x348 <__vector_18+0x5e>
		{
			DATO[indice]=datoRX;
 32c:	80 91 33 01 	lds	r24, 0x0133
 330:	90 91 34 01 	lds	r25, 0x0134
 334:	fc 01       	movw	r30, r24
 336:	e4 5b       	subi	r30, 0xB4	; 180
 338:	fe 4f       	sbci	r31, 0xFE	; 254
 33a:	20 83       	st	Z, r18
			indice++;
 33c:	01 96       	adiw	r24, 0x01	; 1
 33e:	90 93 34 01 	sts	0x0134, r25
 342:	80 93 33 01 	sts	0x0133, r24
 346:	0a c0       	rjmp	.+20     	; 0x35c <__vector_18+0x72>
			}else{
			indice=0;
 348:	10 92 34 01 	sts	0x0134, r1
 34c:	10 92 33 01 	sts	0x0133, r1
			DATO[indice]=datoRX;
 350:	20 93 4c 01 	sts	0x014C, r18
			DATO[1]='\0';
 354:	10 92 4d 01 	sts	0x014D, r1
			DATO[2]='\0';
 358:	10 92 4e 01 	sts	0x014E, r1
		}
	}
	CONTROL(DATO);
 35c:	8c e4       	ldi	r24, 0x4C	; 76
 35e:	91 e0       	ldi	r25, 0x01	; 1
 360:	0e 94 53 00 	call	0xa6	; 0xa6 <CONTROL>
	return;
}
 364:	ff 91       	pop	r31
 366:	ef 91       	pop	r30
 368:	bf 91       	pop	r27
 36a:	af 91       	pop	r26
 36c:	9f 91       	pop	r25
 36e:	8f 91       	pop	r24
 370:	7f 91       	pop	r23
 372:	6f 91       	pop	r22
 374:	5f 91       	pop	r21
 376:	4f 91       	pop	r20
 378:	3f 91       	pop	r19
 37a:	2f 91       	pop	r18
 37c:	0f 90       	pop	r0
 37e:	0f be       	out	0x3f, r0	; 63
 380:	0f 90       	pop	r0
 382:	1f 90       	pop	r1
 384:	18 95       	reti

00000386 <__vector_2>:

//######################################################### RUTINA DE TRATAMIENTO DE INTERRUPCION EXTERNA ##################################################################################################################

ISR (INT1_vect) // PD3(pin3)
{
 386:	1f 92       	push	r1
 388:	0f 92       	push	r0
 38a:	0f b6       	in	r0, 0x3f	; 63
 38c:	0f 92       	push	r0
 38e:	11 24       	eor	r1, r1
 390:	8f 93       	push	r24
 392:	9f 93       	push	r25

PORTB &= ! (1<<PORTB4); // En 0 PINB4
 394:	85 b1       	in	r24, 0x05	; 5
 396:	15 b8       	out	0x05, r1	; 5
	#else
		//round up by default
		__ticks_dc = (uint32_t)(ceil(fabs(__tmp)));
	#endif

	__builtin_avr_delay_cycles(__ticks_dc);
 398:	8f e8       	ldi	r24, 0x8F	; 143
 39a:	91 e0       	ldi	r25, 0x01	; 1
 39c:	01 97       	sbiw	r24, 0x01	; 1
 39e:	f1 f7       	brne	.-4      	; 0x39c <__vector_2+0x16>
 3a0:	00 c0       	rjmp	.+0      	; 0x3a2 <__vector_2+0x1c>
 3a2:	00 00       	nop
_delay_us(100);
PORTB |= (1<<PORTB5); // En 1 PB5(13) Semiciclo negativo
 3a4:	2d 9a       	sbi	0x05, 5	; 5

}
 3a6:	9f 91       	pop	r25
 3a8:	8f 91       	pop	r24
 3aa:	0f 90       	pop	r0
 3ac:	0f be       	out	0x3f, r0	; 63
 3ae:	0f 90       	pop	r0
 3b0:	1f 90       	pop	r1
 3b2:	18 95       	reti

000003b4 <__vector_1>:

ISR (INT0_vect) // PD2(pin2)
{
 3b4:	1f 92       	push	r1
 3b6:	0f 92       	push	r0
 3b8:	0f b6       	in	r0, 0x3f	; 63
 3ba:	0f 92       	push	r0
 3bc:	11 24       	eor	r1, r1
 3be:	8f 93       	push	r24
 3c0:	9f 93       	push	r25
PORTB &= !(1<<PORTB5); // Apago  PB5
 3c2:	85 b1       	in	r24, 0x05	; 5
 3c4:	15 b8       	out	0x05, r1	; 5
 3c6:	8f e8       	ldi	r24, 0x8F	; 143
 3c8:	91 e0       	ldi	r25, 0x01	; 1
 3ca:	01 97       	sbiw	r24, 0x01	; 1
 3cc:	f1 f7       	brne	.-4      	; 0x3ca <__vector_1+0x16>
 3ce:	00 c0       	rjmp	.+0      	; 0x3d0 <__vector_1+0x1c>
 3d0:	00 00       	nop
_delay_us(100);
PORTB |= (1<<PORTB4); // En 1 PB4(12) Semiciclo positivo
 3d2:	2c 9a       	sbi	0x05, 4	; 5

}
 3d4:	9f 91       	pop	r25
 3d6:	8f 91       	pop	r24
 3d8:	0f 90       	pop	r0
 3da:	0f be       	out	0x3f, r0	; 63
 3dc:	0f 90       	pop	r0
 3de:	1f 90       	pop	r1
 3e0:	18 95       	reti

000003e2 <__vector_13>:

//######################################################### RUTINA DE TRATAMIENTO DE INTERRUPCION DEL CAD ##################################################################################################################

ISR(TIMER1_OVF_vect)
{
 3e2:	1f 92       	push	r1
 3e4:	0f 92       	push	r0
 3e6:	0f b6       	in	r0, 0x3f	; 63
 3e8:	0f 92       	push	r0
 3ea:	11 24       	eor	r1, r1
 3ec:	2f 93       	push	r18
 3ee:	3f 93       	push	r19
 3f0:	4f 93       	push	r20
 3f2:	5f 93       	push	r21
 3f4:	6f 93       	push	r22
 3f6:	7f 93       	push	r23
 3f8:	8f 93       	push	r24
 3fa:	9f 93       	push	r25
 3fc:	af 93       	push	r26
 3fe:	bf 93       	push	r27
 400:	ef 93       	push	r30
 402:	ff 93       	push	r31
	ADCSRA|=(1<<ADSC);										// Iniciamos conversion
 404:	ea e7       	ldi	r30, 0x7A	; 122
 406:	f0 e0       	ldi	r31, 0x00	; 0
 408:	80 81       	ld	r24, Z
 40a:	80 64       	ori	r24, 0x40	; 64
 40c:	80 83       	st	Z, r24
	while(ADCSRA & (1<<ADSC));
 40e:	80 81       	ld	r24, Z
 410:	86 fd       	sbrc	r24, 6
 412:	fd cf       	rjmp	.-6      	; 0x40e <__vector_13+0x2c>
	if (strcmp(modo,local)==0)
 414:	66 e0       	ldi	r22, 0x06	; 6
 416:	71 e0       	ldi	r23, 0x01	; 1
 418:	81 e5       	ldi	r24, 0x51	; 81
 41a:	91 e0       	ldi	r25, 0x01	; 1
 41c:	0e 94 0c 04 	call	0x818	; 0x818 <strcmp>
 420:	89 2b       	or	r24, r25
 422:	b1 f4       	brne	.+44     	; 0x450 <__vector_13+0x6e>
	{
		ValorPote=ADC;
 424:	20 91 78 00 	lds	r18, 0x0078
 428:	30 91 79 00 	lds	r19, 0x0079
		ValorPote= (long)ValorPote*100/1023;				// Guardamos el valor ADC en una variable
 42c:	a4 e6       	ldi	r26, 0x64	; 100
 42e:	b0 e0       	ldi	r27, 0x00	; 0
 430:	0e 94 d0 03 	call	0x7a0	; 0x7a0 <__umulhisi3>
 434:	2f ef       	ldi	r18, 0xFF	; 255
 436:	33 e0       	ldi	r19, 0x03	; 3
 438:	40 e0       	ldi	r20, 0x00	; 0
 43a:	50 e0       	ldi	r21, 0x00	; 0
 43c:	0e 94 b1 03 	call	0x762	; 0x762 <__divmodsi4>
 440:	20 93 48 01 	sts	0x0148, r18
 444:	30 93 49 01 	sts	0x0149, r19
 448:	40 93 4a 01 	sts	0x014A, r20
 44c:	50 93 4b 01 	sts	0x014B, r21
	}
	UDR0=(ValorPote/100)+48;
 450:	60 91 48 01 	lds	r22, 0x0148
 454:	70 91 49 01 	lds	r23, 0x0149
 458:	80 91 4a 01 	lds	r24, 0x014A
 45c:	90 91 4b 01 	lds	r25, 0x014B
 460:	24 e6       	ldi	r18, 0x64	; 100
 462:	30 e0       	ldi	r19, 0x00	; 0
 464:	40 e0       	ldi	r20, 0x00	; 0
 466:	50 e0       	ldi	r21, 0x00	; 0
 468:	0e 94 b1 03 	call	0x762	; 0x762 <__divmodsi4>
 46c:	20 5d       	subi	r18, 0xD0	; 208
 46e:	20 93 c6 00 	sts	0x00C6, r18
	while(!(UCSR0A & (1<<UDRE0)));							// Espera a que se envíe el dato
 472:	e0 ec       	ldi	r30, 0xC0	; 192
 474:	f0 e0       	ldi	r31, 0x00	; 0
 476:	80 81       	ld	r24, Z
 478:	85 ff       	sbrs	r24, 5
 47a:	fd cf       	rjmp	.-6      	; 0x476 <__vector_13+0x94>
	Resto=(ValorPote%100);
 47c:	60 91 48 01 	lds	r22, 0x0148
 480:	70 91 49 01 	lds	r23, 0x0149
 484:	80 91 4a 01 	lds	r24, 0x014A
 488:	90 91 4b 01 	lds	r25, 0x014B
 48c:	24 e6       	ldi	r18, 0x64	; 100
 48e:	30 e0       	ldi	r19, 0x00	; 0
 490:	40 e0       	ldi	r20, 0x00	; 0
 492:	50 e0       	ldi	r21, 0x00	; 0
 494:	0e 94 b1 03 	call	0x762	; 0x762 <__divmodsi4>
 498:	60 93 45 01 	sts	0x0145, r22
	UDR0=(Resto/10)+48;
 49c:	8d ec       	ldi	r24, 0xCD	; 205
 49e:	68 9f       	mul	r22, r24
 4a0:	61 2d       	mov	r22, r1
 4a2:	11 24       	eor	r1, r1
 4a4:	66 95       	lsr	r22
 4a6:	66 95       	lsr	r22
 4a8:	66 95       	lsr	r22
 4aa:	60 5d       	subi	r22, 0xD0	; 208
 4ac:	60 93 c6 00 	sts	0x00C6, r22
	while(!(UCSR0A & (1<<UDRE0)));
 4b0:	e0 ec       	ldi	r30, 0xC0	; 192
 4b2:	f0 e0       	ldi	r31, 0x00	; 0
 4b4:	80 81       	ld	r24, Z
 4b6:	85 ff       	sbrs	r24, 5
 4b8:	fd cf       	rjmp	.-6      	; 0x4b4 <__vector_13+0xd2>
	UDR0=((Resto%10)+48);
 4ba:	80 91 45 01 	lds	r24, 0x0145
 4be:	9d ec       	ldi	r25, 0xCD	; 205
 4c0:	89 9f       	mul	r24, r25
 4c2:	91 2d       	mov	r25, r1
 4c4:	11 24       	eor	r1, r1
 4c6:	96 95       	lsr	r25
 4c8:	96 95       	lsr	r25
 4ca:	96 95       	lsr	r25
 4cc:	99 0f       	add	r25, r25
 4ce:	29 2f       	mov	r18, r25
 4d0:	22 0f       	add	r18, r18
 4d2:	22 0f       	add	r18, r18
 4d4:	92 0f       	add	r25, r18
 4d6:	89 1b       	sub	r24, r25
 4d8:	80 5d       	subi	r24, 0xD0	; 208
 4da:	80 93 c6 00 	sts	0x00C6, r24
	while(!(UCSR0A & (1<<UDRE0)));
 4de:	e0 ec       	ldi	r30, 0xC0	; 192
 4e0:	f0 e0       	ldi	r31, 0x00	; 0
 4e2:	80 81       	ld	r24, Z
 4e4:	85 ff       	sbrs	r24, 5
 4e6:	fd cf       	rjmp	.-6      	; 0x4e2 <__vector_13+0x100>
	UDR0=10;
 4e8:	8a e0       	ldi	r24, 0x0A	; 10
 4ea:	80 93 c6 00 	sts	0x00C6, r24
	while(!(UCSR0A & (1<<UDRE0)));
 4ee:	e0 ec       	ldi	r30, 0xC0	; 192
 4f0:	f0 e0       	ldi	r31, 0x00	; 0
 4f2:	80 81       	ld	r24, Z
 4f4:	85 ff       	sbrs	r24, 5
 4f6:	fd cf       	rjmp	.-6      	; 0x4f2 <__vector_13+0x110>
	TCNT1= 30360;											// Espera 1 seg para realizar la conversion
 4f8:	88 e9       	ldi	r24, 0x98	; 152
 4fa:	96 e7       	ldi	r25, 0x76	; 118
 4fc:	90 93 85 00 	sts	0x0085, r25
 500:	80 93 84 00 	sts	0x0084, r24
	OCR0B= ValorPote*199/100;								// PD5 salida PWM
 504:	20 91 48 01 	lds	r18, 0x0148
 508:	30 91 49 01 	lds	r19, 0x0149
 50c:	40 91 4a 01 	lds	r20, 0x014A
 510:	50 91 4b 01 	lds	r21, 0x014B
 514:	a7 ec       	ldi	r26, 0xC7	; 199
 516:	b0 e0       	ldi	r27, 0x00	; 0
 518:	0e 94 df 03 	call	0x7be	; 0x7be <__muluhisi3>
 51c:	24 e6       	ldi	r18, 0x64	; 100
 51e:	30 e0       	ldi	r19, 0x00	; 0
 520:	40 e0       	ldi	r20, 0x00	; 0
 522:	50 e0       	ldi	r21, 0x00	; 0
 524:	0e 94 b1 03 	call	0x762	; 0x762 <__divmodsi4>
 528:	28 bd       	out	0x28, r18	; 40
}
 52a:	ff 91       	pop	r31
 52c:	ef 91       	pop	r30
 52e:	bf 91       	pop	r27
 530:	af 91       	pop	r26
 532:	9f 91       	pop	r25
 534:	8f 91       	pop	r24
 536:	7f 91       	pop	r23
 538:	6f 91       	pop	r22
 53a:	5f 91       	pop	r21
 53c:	4f 91       	pop	r20
 53e:	3f 91       	pop	r19
 540:	2f 91       	pop	r18
 542:	0f 90       	pop	r0
 544:	0f be       	out	0x3f, r0	; 63
 546:	0f 90       	pop	r0
 548:	1f 90       	pop	r1
 54a:	18 95       	reti

0000054c <onoff>:

//######################################################### FUNCION DE MOSTRAR ON - OFF ##################################################################################################################

void onoff ()
{
 54c:	cf 93       	push	r28
 54e:	df 93       	push	r29
 550:	cd b7       	in	r28, 0x3d	; 61
 552:	de b7       	in	r29, 0x3e	; 62
 554:	61 97       	sbiw	r28, 0x11	; 17
 556:	0f b6       	in	r0, 0x3f	; 63
 558:	f8 94       	cli
 55a:	de bf       	out	0x3e, r29	; 62
 55c:	0f be       	out	0x3f, r0	; 63
 55e:	cd bf       	out	0x3d, r28	; 61
	char on[]="PWM on\n";
 560:	88 e0       	ldi	r24, 0x08	; 8
 562:	e1 e2       	ldi	r30, 0x21	; 33
 564:	f1 e0       	ldi	r31, 0x01	; 1
 566:	de 01       	movw	r26, r28
 568:	11 96       	adiw	r26, 0x01	; 1
 56a:	01 90       	ld	r0, Z+
 56c:	0d 92       	st	X+, r0
 56e:	8a 95       	dec	r24
 570:	e1 f7       	brne	.-8      	; 0x56a <onoff+0x1e>
	char off[]="PWM off\n";
 572:	89 e0       	ldi	r24, 0x09	; 9
 574:	e9 e2       	ldi	r30, 0x29	; 41
 576:	f1 e0       	ldi	r31, 0x01	; 1
 578:	de 01       	movw	r26, r28
 57a:	19 96       	adiw	r26, 0x09	; 9
 57c:	01 90       	ld	r0, Z+
 57e:	0d 92       	st	X+, r0
 580:	8a 95       	dec	r24
 582:	e1 f7       	brne	.-8      	; 0x57c <onoff+0x30>
	
	contador++;
 584:	80 91 35 01 	lds	r24, 0x0135
 588:	90 91 36 01 	lds	r25, 0x0136
 58c:	01 96       	adiw	r24, 0x01	; 1
 58e:	90 93 36 01 	sts	0x0136, r25
 592:	80 93 35 01 	sts	0x0135, r24
	
	if ((contador>1))
 596:	82 30       	cpi	r24, 0x02	; 2
 598:	91 05       	cpc	r25, r1
 59a:	2c f0       	brlt	.+10     	; 0x5a6 <onoff+0x5a>
	{
		contador=0;
 59c:	10 92 36 01 	sts	0x0136, r1
 5a0:	10 92 35 01 	sts	0x0135, r1
 5a4:	31 c0       	rjmp	.+98     	; 0x608 <onoff+0xbc>
	}
	if ((contador == 1))
 5a6:	01 97       	sbiw	r24, 0x01	; 1
 5a8:	49 f5       	brne	.+82     	; 0x5fc <onoff+0xb0>
	{
		for (i=0;i<=strlen(on);i++)
 5aa:	10 92 47 01 	sts	0x0147, r1
 5ae:	10 92 46 01 	sts	0x0146, r1
 5b2:	80 e0       	ldi	r24, 0x00	; 0
 5b4:	90 e0       	ldi	r25, 0x00	; 0
		{
			while ( !(UCSR0A &(1<<UDRE0)));
 5b6:	e0 ec       	ldi	r30, 0xC0	; 192
 5b8:	f0 e0       	ldi	r31, 0x00	; 0
			UDR0=on[i];
 5ba:	9e 01       	movw	r18, r28
 5bc:	2f 5f       	subi	r18, 0xFF	; 255
 5be:	3f 4f       	sbci	r19, 0xFF	; 255
 5c0:	46 ec       	ldi	r20, 0xC6	; 198
 5c2:	50 e0       	ldi	r21, 0x00	; 0
	}
	if ((contador == 1))
	{
		for (i=0;i<=strlen(on);i++)
		{
			while ( !(UCSR0A &(1<<UDRE0)));
 5c4:	60 81       	ld	r22, Z
 5c6:	65 ff       	sbrs	r22, 5
 5c8:	fd cf       	rjmp	.-6      	; 0x5c4 <onoff+0x78>
			UDR0=on[i];
 5ca:	d9 01       	movw	r26, r18
 5cc:	a8 0f       	add	r26, r24
 5ce:	b9 1f       	adc	r27, r25
 5d0:	8c 91       	ld	r24, X
 5d2:	da 01       	movw	r26, r20
 5d4:	8c 93       	st	X, r24
	{
		contador=0;
	}
	if ((contador == 1))
	{
		for (i=0;i<=strlen(on);i++)
 5d6:	80 91 46 01 	lds	r24, 0x0146
 5da:	90 91 47 01 	lds	r25, 0x0147
 5de:	01 96       	adiw	r24, 0x01	; 1
 5e0:	90 93 47 01 	sts	0x0147, r25
 5e4:	80 93 46 01 	sts	0x0146, r24
 5e8:	d9 01       	movw	r26, r18
 5ea:	0d 90       	ld	r0, X+
 5ec:	00 20       	and	r0, r0
 5ee:	e9 f7       	brne	.-6      	; 0x5ea <onoff+0x9e>
 5f0:	11 97       	sbiw	r26, 0x01	; 1
 5f2:	a2 1b       	sub	r26, r18
 5f4:	b3 0b       	sbc	r27, r19
 5f6:	a8 17       	cp	r26, r24
 5f8:	b9 07       	cpc	r27, r25
 5fa:	20 f7       	brcc	.-56     	; 0x5c4 <onoff+0x78>
		{
			while ( !(UCSR0A &(1<<UDRE0)));
			UDR0=on[i];
		}
	}
	if ((contador == 0))
 5fc:	80 91 35 01 	lds	r24, 0x0135
 600:	90 91 36 01 	lds	r25, 0x0136
 604:	89 2b       	or	r24, r25
 606:	51 f5       	brne	.+84     	; 0x65c <onoff+0x110>
	{
		for (i=0;i<=strlen(off);i++)
 608:	10 92 47 01 	sts	0x0147, r1
 60c:	10 92 46 01 	sts	0x0146, r1
 610:	a0 e0       	ldi	r26, 0x00	; 0
 612:	b0 e0       	ldi	r27, 0x00	; 0
		{
			while ( !(UCSR0A &(1<<UDRE0)));
 614:	e0 ec       	ldi	r30, 0xC0	; 192
 616:	f0 e0       	ldi	r31, 0x00	; 0
			UDR0=off[i];
 618:	9e 01       	movw	r18, r28
 61a:	27 5f       	subi	r18, 0xF7	; 247
 61c:	3f 4f       	sbci	r19, 0xFF	; 255
 61e:	46 ec       	ldi	r20, 0xC6	; 198
 620:	50 e0       	ldi	r21, 0x00	; 0
 622:	01 c0       	rjmp	.+2      	; 0x626 <onoff+0xda>
			UDR0=on[i];
		}
	}
	if ((contador == 0))
	{
		for (i=0;i<=strlen(off);i++)
 624:	dc 01       	movw	r26, r24
		{
			while ( !(UCSR0A &(1<<UDRE0)));
 626:	80 81       	ld	r24, Z
 628:	85 ff       	sbrs	r24, 5
 62a:	fd cf       	rjmp	.-6      	; 0x626 <onoff+0xda>
			UDR0=off[i];
 62c:	a2 0f       	add	r26, r18
 62e:	b3 1f       	adc	r27, r19
 630:	8c 91       	ld	r24, X
 632:	da 01       	movw	r26, r20
 634:	8c 93       	st	X, r24
			UDR0=on[i];
		}
	}
	if ((contador == 0))
	{
		for (i=0;i<=strlen(off);i++)
 636:	80 91 46 01 	lds	r24, 0x0146
 63a:	90 91 47 01 	lds	r25, 0x0147
 63e:	01 96       	adiw	r24, 0x01	; 1
 640:	90 93 47 01 	sts	0x0147, r25
 644:	80 93 46 01 	sts	0x0146, r24
 648:	d9 01       	movw	r26, r18
 64a:	0d 90       	ld	r0, X+
 64c:	00 20       	and	r0, r0
 64e:	e9 f7       	brne	.-6      	; 0x64a <onoff+0xfe>
 650:	11 97       	sbiw	r26, 0x01	; 1
 652:	a2 1b       	sub	r26, r18
 654:	b3 0b       	sbc	r27, r19
 656:	a8 17       	cp	r26, r24
 658:	b9 07       	cpc	r27, r25
 65a:	20 f7       	brcc	.-56     	; 0x624 <onoff+0xd8>
			while ( !(UCSR0A &(1<<UDRE0)));
			UDR0=off[i];
		}
	}
	return;
}
 65c:	61 96       	adiw	r28, 0x11	; 17
 65e:	0f b6       	in	r0, 0x3f	; 63
 660:	f8 94       	cli
 662:	de bf       	out	0x3e, r29	; 62
 664:	0f be       	out	0x3f, r0	; 63
 666:	cd bf       	out	0x3d, r28	; 61
 668:	df 91       	pop	r29
 66a:	cf 91       	pop	r28
 66c:	08 95       	ret

0000066e <main>:
void onoff(void);
uint8_t LecturaPin8(void);

int main(void)
{
	strcpy(modo,local);
 66e:	66 e0       	ldi	r22, 0x06	; 6
 670:	71 e0       	ldi	r23, 0x01	; 1
 672:	81 e5       	ldi	r24, 0x51	; 81
 674:	91 e0       	ldi	r25, 0x01	; 1
 676:	0e 94 15 04 	call	0x82a	; 0x82a <strcpy>
	
	DDRD |=(1<<DDD5);										// PD5 como salida PWM (OC0B)
 67a:	55 9a       	sbi	0x0a, 5	; 10
	DDRB |=(1<<DDB5)|(1<<DDB4)|(0<<DDB0)|(1<<DDB3);			// Conf como salida PB5(13), PB4(12) y PB0(8) como entrada
 67c:	84 b1       	in	r24, 0x04	; 4
 67e:	88 63       	ori	r24, 0x38	; 56
 680:	84 b9       	out	0x04, r24	; 4
	PORTD |= (1<<PORTD2)|(1<<PORTD3);						// Configuro Restistencias pull up
 682:	8b b1       	in	r24, 0x0b	; 11
 684:	8c 60       	ori	r24, 0x0C	; 12
 686:	8b b9       	out	0x0b, r24	; 11
	PORTB |= (1<<PORTB0);									// Resistencia Pull-UP
 688:	28 9a       	sbi	0x05, 0	; 5

	TCCR0A= (0<<COM0B1)|(0<<COM0B0)|(0<<WGM01)|(1<<WGM00);	// PWM fase correcta,
 68a:	21 e0       	ldi	r18, 0x01	; 1
 68c:	24 bd       	out	0x24, r18	; 36
	TCCR0B= (0<<CS02)|(1<<CS01)|(0<<CS00)|(1<<WGM02);		// Selecciono prescaler en 8
 68e:	8a e0       	ldi	r24, 0x0A	; 10
 690:	85 bd       	out	0x25, r24	; 37

	OCR0A= 199;												// Define la frecuencia pwm 5KHz
 692:	87 ec       	ldi	r24, 0xC7	; 199
 694:	87 bd       	out	0x27, r24	; 39
	OCR0B = 100;											// Define el ancho de pulso
 696:	84 e6       	ldi	r24, 0x64	; 100
 698:	88 bd       	out	0x28, r24	; 40

	EIMSK= (1<<INT1)|(1<<INT0);
 69a:	83 e0       	ldi	r24, 0x03	; 3
 69c:	8d bb       	out	0x1d, r24	; 29
	EICRA= (1<<ISC11)|(0<<ISC10)|(1<<ISC01)|(1<<ISC00);		// Conf INT1 flanco descendente, INT0 flanco ascendente
 69e:	8b e0       	ldi	r24, 0x0B	; 11
 6a0:	80 93 69 00 	sts	0x0069, r24

	TCCR1A=0;
 6a4:	10 92 80 00 	sts	0x0080, r1
	TCCR1B=4;												// Selector de reloj CKl/256
 6a8:	84 e0       	ldi	r24, 0x04	; 4
 6aa:	80 93 81 00 	sts	0x0081, r24
	TCNT1=30360;											// 1s
 6ae:	88 e9       	ldi	r24, 0x98	; 152
 6b0:	96 e7       	ldi	r25, 0x76	; 118
 6b2:	90 93 85 00 	sts	0x0085, r25
 6b6:	80 93 84 00 	sts	0x0084, r24
	TIMSK1=(1<<TOIE1);										// Habilitación de interrupción por desbordamiento
 6ba:	20 93 6f 00 	sts	0x006F, r18

	UCSR0A=0;
 6be:	10 92 c0 00 	sts	0x00C0, r1
	UBRR0=103;												// Velociadad de transmicion en 9600
 6c2:	87 e6       	ldi	r24, 0x67	; 103
 6c4:	90 e0       	ldi	r25, 0x00	; 0
 6c6:	90 93 c5 00 	sts	0x00C5, r25
 6ca:	80 93 c4 00 	sts	0x00C4, r24
	UCSR0C=(0<<UMSEL01)|(0<<UMSEL00)|(1<<UCSZ01)|(1<<UCSZ00)|(0<<USBS0)|(0<<UPM01)|(0<<UPM00);	// Modo Asincrono, size caracter 8-bit, 1-bit de stop, paridad OFF
 6ce:	86 e0       	ldi	r24, 0x06	; 6
 6d0:	80 93 c2 00 	sts	0x00C2, r24
	UCSR0B=(1<<RXEN0) | (1<<TXEN0) | (1<<RXCIE0);			// Habilito receptor y transceptor, interrupcion recepcion completa
 6d4:	88 e9       	ldi	r24, 0x98	; 152
 6d6:	80 93 c1 00 	sts	0x00C1, r24

	ADMUX= (1<<REFS0);										// Tension de referencia con capacitor externo
 6da:	80 e4       	ldi	r24, 0x40	; 64
 6dc:	80 93 7c 00 	sts	0x007C, r24
	ADCSRA=(1<<ADEN)|(0<<ADSC)|(1<<ADPS1)|(1<<ADPS0);		// Habilito el ADC, Configuro prescaler en 8
 6e0:	83 e8       	ldi	r24, 0x83	; 131
 6e2:	80 93 7a 00 	sts	0x007A, r24

	sei();
 6e6:	78 94       	sei
		{
			bTX=0;											//pongo en 0 la bandera
		}
		if ((strcmp(modo,local)==0)&&(LecturaPin8()==1))	//si es modo local leo el y PB0 esta en 1
		{														
			TCCR0A ^= (1<<COM0B1)|(0<<COM0B0);		        //Cambio de estado PWM
 6e8:	c0 e2       	ldi	r28, 0x20	; 32
	ADCSRA=(1<<ADEN)|(0<<ADSC)|(1<<ADPS1)|(1<<ADPS0);		// Habilito el ADC, Configuro prescaler en 8

	sei();
    while(1)
	{  
		if(bTX==1)											// cuando se pone en alto la bandera de recepcion retransmite el dato
 6ea:	80 91 32 01 	lds	r24, 0x0132
 6ee:	81 30       	cpi	r24, 0x01	; 1
 6f0:	11 f4       	brne	.+4      	; 0x6f6 <main+0x88>
		{
			bTX=0;											//pongo en 0 la bandera
 6f2:	10 92 32 01 	sts	0x0132, r1
		}
		if ((strcmp(modo,local)==0)&&(LecturaPin8()==1))	//si es modo local leo el y PB0 esta en 1
 6f6:	66 e0       	ldi	r22, 0x06	; 6
 6f8:	71 e0       	ldi	r23, 0x01	; 1
 6fa:	81 e5       	ldi	r24, 0x51	; 81
 6fc:	91 e0       	ldi	r25, 0x01	; 1
 6fe:	0e 94 0c 04 	call	0x818	; 0x818 <strcmp>
 702:	89 2b       	or	r24, r25
 704:	49 f4       	brne	.+18     	; 0x718 <main+0xaa>
 706:	0e 94 66 01 	call	0x2cc	; 0x2cc <LecturaPin8>
 70a:	81 30       	cpi	r24, 0x01	; 1
 70c:	29 f4       	brne	.+10     	; 0x718 <main+0xaa>
		{														
			TCCR0A ^= (1<<COM0B1)|(0<<COM0B0);		        //Cambio de estado PWM
 70e:	84 b5       	in	r24, 0x24	; 36
 710:	8c 27       	eor	r24, r28
 712:	84 bd       	out	0x24, r24	; 36
		    onoff();
 714:	0e 94 a6 02 	call	0x54c	; 0x54c <onoff>
	    }
		if ((strcmp(modo,remoto)==0)&&(strcmp(estado,on_off)==0))
 718:	64 e0       	ldi	r22, 0x04	; 4
 71a:	71 e0       	ldi	r23, 0x01	; 1
 71c:	81 e5       	ldi	r24, 0x51	; 81
 71e:	91 e0       	ldi	r25, 0x01	; 1
 720:	0e 94 0c 04 	call	0x818	; 0x818 <strcmp>
 724:	89 2b       	or	r24, r25
 726:	99 f4       	brne	.+38     	; 0x74e <main+0xe0>
 728:	62 e0       	ldi	r22, 0x02	; 2
 72a:	71 e0       	ldi	r23, 0x01	; 1
 72c:	89 e3       	ldi	r24, 0x39	; 57
 72e:	91 e0       	ldi	r25, 0x01	; 1
 730:	0e 94 0c 04 	call	0x818	; 0x818 <strcmp>
 734:	89 2b       	or	r24, r25
 736:	59 f4       	brne	.+22     	; 0x74e <main+0xe0>
		{
			TCCR0A ^= (1<<COM0B1);							//Cambio de estado PWM
 738:	84 b5       	in	r24, 0x24	; 36
 73a:	8c 27       	eor	r24, r28
 73c:	84 bd       	out	0x24, r24	; 36
			strcpy(estado,cambio);
 73e:	60 e0       	ldi	r22, 0x00	; 0
 740:	71 e0       	ldi	r23, 0x01	; 1
 742:	89 e3       	ldi	r24, 0x39	; 57
 744:	91 e0       	ldi	r25, 0x01	; 1
 746:	0e 94 15 04 	call	0x82a	; 0x82a <strcpy>
			onoff();
 74a:	0e 94 a6 02 	call	0x54c	; 0x54c <onoff>
	#else
		//round up by default
		__ticks_dc = (uint32_t)(ceil(fabs(__tmp)));
	#endif

	__builtin_avr_delay_cycles(__ticks_dc);
 74e:	2f ef       	ldi	r18, 0xFF	; 255
 750:	84 e3       	ldi	r24, 0x34	; 52
 752:	9c e0       	ldi	r25, 0x0C	; 12
 754:	21 50       	subi	r18, 0x01	; 1
 756:	80 40       	sbci	r24, 0x00	; 0
 758:	90 40       	sbci	r25, 0x00	; 0
 75a:	e1 f7       	brne	.-8      	; 0x754 <main+0xe6>
 75c:	00 c0       	rjmp	.+0      	; 0x75e <main+0xf0>
 75e:	00 00       	nop
 760:	c4 cf       	rjmp	.-120    	; 0x6ea <main+0x7c>

00000762 <__divmodsi4>:
 762:	05 2e       	mov	r0, r21
 764:	97 fb       	bst	r25, 7
 766:	1e f4       	brtc	.+6      	; 0x76e <__divmodsi4+0xc>
 768:	00 94       	com	r0
 76a:	0e 94 c8 03 	call	0x790	; 0x790 <__negsi2>
 76e:	57 fd       	sbrc	r21, 7
 770:	07 d0       	rcall	.+14     	; 0x780 <__divmodsi4_neg2>
 772:	0e 94 ea 03 	call	0x7d4	; 0x7d4 <__udivmodsi4>
 776:	07 fc       	sbrc	r0, 7
 778:	03 d0       	rcall	.+6      	; 0x780 <__divmodsi4_neg2>
 77a:	4e f4       	brtc	.+18     	; 0x78e <__divmodsi4_exit>
 77c:	0c 94 c8 03 	jmp	0x790	; 0x790 <__negsi2>

00000780 <__divmodsi4_neg2>:
 780:	50 95       	com	r21
 782:	40 95       	com	r20
 784:	30 95       	com	r19
 786:	21 95       	neg	r18
 788:	3f 4f       	sbci	r19, 0xFF	; 255
 78a:	4f 4f       	sbci	r20, 0xFF	; 255
 78c:	5f 4f       	sbci	r21, 0xFF	; 255

0000078e <__divmodsi4_exit>:
 78e:	08 95       	ret

00000790 <__negsi2>:
 790:	90 95       	com	r25
 792:	80 95       	com	r24
 794:	70 95       	com	r23
 796:	61 95       	neg	r22
 798:	7f 4f       	sbci	r23, 0xFF	; 255
 79a:	8f 4f       	sbci	r24, 0xFF	; 255
 79c:	9f 4f       	sbci	r25, 0xFF	; 255
 79e:	08 95       	ret

000007a0 <__umulhisi3>:
 7a0:	a2 9f       	mul	r26, r18
 7a2:	b0 01       	movw	r22, r0
 7a4:	b3 9f       	mul	r27, r19
 7a6:	c0 01       	movw	r24, r0
 7a8:	a3 9f       	mul	r26, r19
 7aa:	70 0d       	add	r23, r0
 7ac:	81 1d       	adc	r24, r1
 7ae:	11 24       	eor	r1, r1
 7b0:	91 1d       	adc	r25, r1
 7b2:	b2 9f       	mul	r27, r18
 7b4:	70 0d       	add	r23, r0
 7b6:	81 1d       	adc	r24, r1
 7b8:	11 24       	eor	r1, r1
 7ba:	91 1d       	adc	r25, r1
 7bc:	08 95       	ret

000007be <__muluhisi3>:
 7be:	0e 94 d0 03 	call	0x7a0	; 0x7a0 <__umulhisi3>
 7c2:	a5 9f       	mul	r26, r21
 7c4:	90 0d       	add	r25, r0
 7c6:	b4 9f       	mul	r27, r20
 7c8:	90 0d       	add	r25, r0
 7ca:	a4 9f       	mul	r26, r20
 7cc:	80 0d       	add	r24, r0
 7ce:	91 1d       	adc	r25, r1
 7d0:	11 24       	eor	r1, r1
 7d2:	08 95       	ret

000007d4 <__udivmodsi4>:
 7d4:	a1 e2       	ldi	r26, 0x21	; 33
 7d6:	1a 2e       	mov	r1, r26
 7d8:	aa 1b       	sub	r26, r26
 7da:	bb 1b       	sub	r27, r27
 7dc:	fd 01       	movw	r30, r26
 7de:	0d c0       	rjmp	.+26     	; 0x7fa <__udivmodsi4_ep>

000007e0 <__udivmodsi4_loop>:
 7e0:	aa 1f       	adc	r26, r26
 7e2:	bb 1f       	adc	r27, r27
 7e4:	ee 1f       	adc	r30, r30
 7e6:	ff 1f       	adc	r31, r31
 7e8:	a2 17       	cp	r26, r18
 7ea:	b3 07       	cpc	r27, r19
 7ec:	e4 07       	cpc	r30, r20
 7ee:	f5 07       	cpc	r31, r21
 7f0:	20 f0       	brcs	.+8      	; 0x7fa <__udivmodsi4_ep>
 7f2:	a2 1b       	sub	r26, r18
 7f4:	b3 0b       	sbc	r27, r19
 7f6:	e4 0b       	sbc	r30, r20
 7f8:	f5 0b       	sbc	r31, r21

000007fa <__udivmodsi4_ep>:
 7fa:	66 1f       	adc	r22, r22
 7fc:	77 1f       	adc	r23, r23
 7fe:	88 1f       	adc	r24, r24
 800:	99 1f       	adc	r25, r25
 802:	1a 94       	dec	r1
 804:	69 f7       	brne	.-38     	; 0x7e0 <__udivmodsi4_loop>
 806:	60 95       	com	r22
 808:	70 95       	com	r23
 80a:	80 95       	com	r24
 80c:	90 95       	com	r25
 80e:	9b 01       	movw	r18, r22
 810:	ac 01       	movw	r20, r24
 812:	bd 01       	movw	r22, r26
 814:	cf 01       	movw	r24, r30
 816:	08 95       	ret

00000818 <strcmp>:
 818:	fb 01       	movw	r30, r22
 81a:	dc 01       	movw	r26, r24
 81c:	8d 91       	ld	r24, X+
 81e:	01 90       	ld	r0, Z+
 820:	80 19       	sub	r24, r0
 822:	01 10       	cpse	r0, r1
 824:	d9 f3       	breq	.-10     	; 0x81c <strcmp+0x4>
 826:	99 0b       	sbc	r25, r25
 828:	08 95       	ret

0000082a <strcpy>:
 82a:	fb 01       	movw	r30, r22
 82c:	dc 01       	movw	r26, r24
 82e:	01 90       	ld	r0, Z+
 830:	0d 92       	st	X+, r0
 832:	00 20       	and	r0, r0
 834:	e1 f7       	brne	.-8      	; 0x82e <strcpy+0x4>
 836:	08 95       	ret

00000838 <_exit>:
 838:	f8 94       	cli

0000083a <__stop_program>:
 83a:	ff cf       	rjmp	.-2      	; 0x83a <__stop_program>
